target datalayout = "e-m:e-p270:32:32-p271:32:32-p272:64:64-i64:64-i128:128-f80:128-n8:16:32:64-S128"
target triple = "x86_64-pc-linux-gnu"

%"class.glslang::TQualifier" = type <{ ptr, i64, i8, [3 x i8], i32, i32, i64, i64, i8, i8, i8, i8, i8, [3 x i8], i32, i8, i8, i8, i8, i32, ptr, i8, i8, [6 x i8] }>
%"struct.glslang::TTypeLoc" = type { ptr, %"struct.glslang::TSourceLoc" }
%"struct.glslang::TSourceLoc" = type { ptr, i32, i32, i32 }
%"class.glslang::TType" = type { ptr, i32, [4 x i8], %"class.glslang::TQualifier", ptr, %union.anon.92, ptr, ptr, %"struct.glslang::TSampler", ptr, ptr }
%union.anon.92 = type { ptr }
%"struct.glslang::TSampler" = type { i32 }
%"struct.std::_Vector_base.127" = type { %"struct.std::_Vector_base<glslang::TTypeLoc, glslang::pool_allocator<glslang::TTypeLoc>>::_Vector_impl" }
%"struct.std::_Vector_base<glslang::TTypeLoc, glslang::pool_allocator<glslang::TTypeLoc>>::_Vector_impl" = type { %"class.glslang::pool_allocator.128", %"struct.std::_Vector_base<glslang::TTypeLoc, glslang::pool_allocator<glslang::TTypeLoc>>::_Vector_impl_data" }
%"class.glslang::pool_allocator.128" = type { ptr }
%"struct.std::_Vector_base<glslang::TTypeLoc, glslang::pool_allocator<glslang::TTypeLoc>>::_Vector_impl_data" = type { ptr, ptr, ptr }

; Function Attrs: mustprogress nounwind uwtable
define linkonce_odr void @_ZN7glslang11RoundToPow2IiEEvRT_i(ptr noundef nonnull align 4 dereferenceable(4) %0, i32 noundef %1) #0 comdat {
  %3 = alloca ptr, align 8
  %4 = alloca i32, align 4
  store ptr %0, ptr %3, align 8
  store i32 %1, ptr %4, align 4
  %5 = load ptr, ptr %3, align 8
  %6 = load i32, ptr %5, align 4
  %7 = load i32, ptr %4, align 4
  %8 = add nsw i32 %6, %7
  %9 = sub nsw i32 %8, 1
  %10 = load i32, ptr %4, align 4
  %11 = sub nsw i32 %10, 1
  %12 = xor i32 %11, -1
  %13 = and i32 %9, %12
  %14 = load ptr, ptr %3, align 8
  store i32 %13, ptr %14, align 4
  ret void
}

; Function Attrs: mustprogress nounwind uwtable
define noundef i32 @_ZN7glslang13TIntermediate18getMemberAlignmentERKNS_5TTypeERiS4_NS_14TLayoutPackingEb(ptr noundef nonnull align 8 dereferenceable(152) %0, ptr noundef nonnull align 4 dereferenceable(4) %1, ptr noundef nonnull align 4 dereferenceable(4) %2, i32 noundef %3, i1 noundef zeroext %4) #0 align 2 {
  %6 = alloca i32, align 4
  %7 = alloca ptr, align 8
  %8 = alloca ptr, align 8
  %9 = alloca ptr, align 8
  %10 = alloca i32, align 4
  %11 = alloca i8, align 1
  store ptr %0, ptr %7, align 8
  store ptr %1, ptr %8, align 8
  store ptr %2, ptr %9, align 8
  store i32 %3, ptr %10, align 4
  %12 = zext i1 %4 to i8
  store i8 %12, ptr %11, align 1
  %13 = load i32, ptr %10, align 4
  %14 = icmp eq i32 %13, 5
  br i1 %14, label %15, label %22

15:                                               ; preds = %5
  %16 = load ptr, ptr %7, align 8
  %17 = load ptr, ptr %8, align 8
  %18 = load ptr, ptr %9, align 8
  %19 = load i8, ptr %11, align 1
  %20 = trunc i8 %19 to i1
  %21 = call noundef i32 @_ZN7glslang13TIntermediate18getScalarAlignmentERKNS_5TTypeERiS4_b(ptr noundef nonnull align 8 dereferenceable(152) %16, ptr noundef nonnull align 4 dereferenceable(4) %17, ptr noundef nonnull align 4 dereferenceable(4) %18, i1 noundef zeroext %20)
  store i32 %21, ptr %6, align 4
  br label %30

22:                                               ; preds = %5
  %23 = load ptr, ptr %7, align 8
  %24 = load ptr, ptr %8, align 8
  %25 = load ptr, ptr %9, align 8
  %26 = load i32, ptr %10, align 4
  %27 = load i8, ptr %11, align 1
  %28 = trunc i8 %27 to i1
  %29 = call noundef i32 @_ZN7glslang13TIntermediate16getBaseAlignmentERKNS_5TTypeERiS4_NS_14TLayoutPackingEb(ptr noundef nonnull align 8 dereferenceable(152) %23, ptr noundef nonnull align 4 dereferenceable(4) %24, ptr noundef nonnull align 4 dereferenceable(4) %25, i32 noundef %26, i1 noundef zeroext %28)
  store i32 %29, ptr %6, align 4
  br label %30

30:                                               ; preds = %22, %15
  %31 = load i32, ptr %6, align 4
  ret i32 %31
}

; Function Attrs: mustprogress nounwind uwtable
define void @_ZN7glslang13TIntermediate12updateOffsetERKNS_5TTypeES3_RiS4_(ptr noundef nonnull align 8 dereferenceable(152) %0, ptr noundef nonnull align 8 dereferenceable(152) %1, ptr noundef nonnull align 4 dereferenceable(4) %2, ptr noundef nonnull align 4 dereferenceable(4) %3) #0 align 2 {
  %5 = alloca ptr, align 8
  %6 = alloca ptr, align 8
  %7 = alloca ptr, align 8
  %8 = alloca ptr, align 8
  %9 = alloca i32, align 4
  %10 = alloca i32, align 4
  %11 = alloca i32, align 4
  store ptr %0, ptr %5, align 8
  store ptr %1, ptr %6, align 8
  store ptr %2, ptr %7, align 8
  store ptr %3, ptr %8, align 8
  %12 = load ptr, ptr %6, align 8
  %13 = load ptr, ptr %12, align 8
  %14 = getelementptr inbounds ptr, ptr %13, i64 11
  %15 = load ptr, ptr %14, align 8
  %16 = call noundef nonnull align 8 dereferenceable(80) ptr %15(ptr noundef nonnull align 8 dereferenceable(152) %12)
  %17 = getelementptr inbounds %"class.glslang::TQualifier", ptr %16, i32 0, i32 1
  %18 = load i64, ptr %17, align 8
  %19 = lshr i64 %18, 60
  %20 = and i64 %19, 7
  %21 = trunc i64 %20 to i32
  store i32 %21, ptr %10, align 4
  %22 = load ptr, ptr %6, align 8
  %23 = load ptr, ptr %8, align 8
  %24 = load ptr, ptr %5, align 8
  %25 = load ptr, ptr %24, align 8
  %26 = getelementptr inbounds ptr, ptr %25, i64 11
  %27 = load ptr, ptr %26, align 8
  %28 = call noundef nonnull align 8 dereferenceable(80) ptr %27(ptr noundef nonnull align 8 dereferenceable(152) %24)
  %29 = getelementptr inbounds %"class.glslang::TQualifier", ptr %28, i32 0, i32 2
  %30 = load i8, ptr %29, align 8
  %31 = and i8 %30, 15
  %32 = zext i8 %31 to i32
  %33 = load i32, ptr %10, align 4
  %34 = icmp ne i32 %33, 0
  br i1 %34, label %35, label %38

35:                                               ; preds = %4
  %36 = load i32, ptr %10, align 4
  %37 = icmp eq i32 %36, 1
  br label %50

38:                                               ; preds = %4
  %39 = load ptr, ptr %5, align 8
  %40 = load ptr, ptr %39, align 8
  %41 = getelementptr inbounds ptr, ptr %40, i64 11
  %42 = load ptr, ptr %41, align 8
  %43 = call noundef nonnull align 8 dereferenceable(80) ptr %42(ptr noundef nonnull align 8 dereferenceable(152) %39)
  %44 = getelementptr inbounds %"class.glslang::TQualifier", ptr %43, i32 0, i32 1
  %45 = load i64, ptr %44, align 8
  %46 = lshr i64 %45, 60
  %47 = and i64 %46, 7
  %48 = trunc i64 %47 to i32
  %49 = icmp eq i32 %48, 1
  br label %50

50:                                               ; preds = %38, %35
  %51 = phi i1 [ %37, %35 ], [ %49, %38 ]
  %52 = call noundef i32 @_ZN7glslang13TIntermediate18getMemberAlignmentERKNS_5TTypeERiS4_NS_14TLayoutPackingEb(ptr noundef nonnull align 8 dereferenceable(152) %22, ptr noundef nonnull align 4 dereferenceable(4) %23, ptr noundef nonnull align 4 dereferenceable(4) %9, i32 noundef %32, i1 noundef zeroext %51)
  store i32 %52, ptr %11, align 4
  %53 = load ptr, ptr %7, align 8
  %54 = load i32, ptr %11, align 4
  call void @_ZN7glslang11RoundToPow2IiEEvRT_i(ptr noundef nonnull align 4 dereferenceable(4) %53, i32 noundef %54)
  ret void
}

; Function Attrs: mustprogress nounwind uwtable
define linkonce_odr noundef zeroext i1 @_ZNK7glslang10TQualifier9hasOffsetEv(ptr noundef nonnull align 8 dereferenceable(80) %0) #0 comdat align 2 {
  %2 = alloca ptr, align 8
  store ptr %0, ptr %2, align 8
  %3 = load ptr, ptr %2, align 8
  %4 = getelementptr inbounds %"class.glslang::TQualifier", ptr %3, i32 0, i32 4
  %5 = load i32, ptr %4, align 4
  %6 = icmp ne i32 %5, -1
  ret i1 %6
}

; Function Attrs: mustprogress nounwind uwtable
define linkonce_odr noundef nonnull align 8 dereferenceable(32) ptr @_ZNKSt6vectorIN7glslang8TTypeLocENS0_14pool_allocatorIS1_EEEixEm(ptr noundef nonnull align 8 dereferenceable(32) %0, i64 noundef %1) #0 comdat align 2 {
  %3 = alloca ptr, align 8
  %4 = alloca i64, align 8
  store ptr %0, ptr %3, align 8
  store i64 %1, ptr %4, align 8
  %5 = load ptr, ptr %3, align 8
  %6 = getelementptr inbounds %"struct.std::_Vector_base.127", ptr %5, i32 0, i32 0
  %7 = getelementptr inbounds i8, ptr %6, i64 8
  %8 = getelementptr inbounds %"struct.std::_Vector_base<glslang::TTypeLoc, glslang::pool_allocator<glslang::TTypeLoc>>::_Vector_impl_data", ptr %7, i32 0, i32 0
  %9 = load ptr, ptr %8, align 8
  %10 = load i64, ptr %4, align 8
  %11 = getelementptr inbounds %"struct.glslang::TTypeLoc", ptr %9, i64 %10
  ret ptr %11
}

; Function Attrs: mustprogress nounwind uwtable
define linkonce_odr noundef ptr @_ZNK7glslang5TType9getStructEv(ptr noundef nonnull align 8 dereferenceable(152) %0) #0 comdat align 2 {
  %2 = alloca ptr, align 8
  store ptr %0, ptr %2, align 8
  %3 = load ptr, ptr %2, align 8
  %4 = getelementptr inbounds %"class.glslang::TType", ptr %3, i32 0, i32 5
  %5 = load ptr, ptr %4, align 8
  ret ptr %5
}

; Function Attrs: mustprogress nounwind uwtable
define noundef i32 @_ZN7glslang13TIntermediate9getOffsetERKNS_5TTypeEi(ptr noundef nonnull align 8 dereferenceable(152) %0, i32 noundef %1) #0 align 2 {
  %3 = alloca i32, align 4
  %4 = alloca ptr, align 8
  %5 = alloca i32, align 4
  %6 = alloca ptr, align 8
  %7 = alloca i32, align 4
  %8 = alloca i32, align 4
  %9 = alloca i32, align 4
  store ptr %0, ptr %4, align 8
  store i32 %1, ptr %5, align 4
  %10 = load ptr, ptr %4, align 8
  %11 = call noundef ptr @_ZNK7glslang5TType9getStructEv(ptr noundef nonnull align 8 dereferenceable(152) %10)
  store ptr %11, ptr %6, align 8
  %12 = load ptr, ptr %6, align 8
  %13 = load i32, ptr %5, align 4
  %14 = sext i32 %13 to i64
  %15 = call noundef nonnull align 8 dereferenceable(32) ptr @_ZNKSt6vectorIN7glslang8TTypeLocENS0_14pool_allocatorIS1_EEEixEm(ptr noundef nonnull align 8 dereferenceable(32) %12, i64 noundef %14) #12
  %16 = getelementptr inbounds %"struct.glslang::TTypeLoc", ptr %15, i32 0, i32 0
  %17 = load ptr, ptr %16, align 8
  %18 = load ptr, ptr %17, align 8
  %19 = getelementptr inbounds ptr, ptr %18, i64 10
  %20 = load ptr, ptr %19, align 8
  %21 = call noundef nonnull align 8 dereferenceable(80) ptr %20(ptr noundef nonnull align 8 dereferenceable(152) %17)
  %22 = call noundef zeroext i1 @_ZNK7glslang10TQualifier9hasOffsetEv(ptr noundef nonnull align 8 dereferenceable(80) %21)
  br i1 %22, label %23, label %36

23:                                               ; preds = %2
  %24 = load ptr, ptr %6, align 8
  %25 = load i32, ptr %5, align 4
  %26 = sext i32 %25 to i64
  %27 = call noundef nonnull align 8 dereferenceable(32) ptr @_ZNKSt6vectorIN7glslang8TTypeLocENS0_14pool_allocatorIS1_EEEixEm(ptr noundef nonnull align 8 dereferenceable(32) %24, i64 noundef %26) #12
  %28 = getelementptr inbounds %"struct.glslang::TTypeLoc", ptr %27, i32 0, i32 0
  %29 = load ptr, ptr %28, align 8
  %30 = load ptr, ptr %29, align 8
  %31 = getelementptr inbounds ptr, ptr %30, i64 10
  %32 = load ptr, ptr %31, align 8
  %33 = call noundef nonnull align 8 dereferenceable(80) ptr %32(ptr noundef nonnull align 8 dereferenceable(152) %29)
  %34 = getelementptr inbounds %"class.glslang::TQualifier", ptr %33, i32 0, i32 4
  %35 = load i32, ptr %34, align 4
  store i32 %35, ptr %3, align 4
  br label %62

36:                                               ; preds = %2
  store i32 0, ptr %7, align 4
  store i32 0, ptr %8, align 4
  store i32 0, ptr %9, align 4
  br label %37

37:                                               ; preds = %57, %36
  %38 = load i32, ptr %9, align 4
  %39 = load i32, ptr %5, align 4
  %40 = icmp sle i32 %38, %39
  br i1 %40, label %41, label %60

41:                                               ; preds = %37
  %42 = load ptr, ptr %4, align 8
  %43 = load ptr, ptr %6, align 8
  %44 = load i32, ptr %9, align 4
  %45 = sext i32 %44 to i64
  %46 = call noundef nonnull align 8 dereferenceable(32) ptr @_ZNKSt6vectorIN7glslang8TTypeLocENS0_14pool_allocatorIS1_EEEixEm(ptr noundef nonnull align 8 dereferenceable(32) %43, i64 noundef %45) #12
  %47 = getelementptr inbounds %"struct.glslang::TTypeLoc", ptr %46, i32 0, i32 0
  %48 = load ptr, ptr %47, align 8
  call void @_ZN7glslang13TIntermediate12updateOffsetERKNS_5TTypeES3_RiS4_(ptr noundef nonnull align 8 dereferenceable(152) %42, ptr noundef nonnull align 8 dereferenceable(152) %48, ptr noundef nonnull align 4 dereferenceable(4) %8, ptr noundef nonnull align 4 dereferenceable(4) %7)
  %49 = load i32, ptr %9, align 4
  %50 = load i32, ptr %5, align 4
  %51 = icmp slt i32 %49, %50
  br i1 %51, label %52, label %56

52:                                               ; preds = %41
  %53 = load i32, ptr %7, align 4
  %54 = load i32, ptr %8, align 4
  %55 = add nsw i32 %54, %53
  store i32 %55, ptr %8, align 4
  br label %56

56:                                               ; preds = %52, %41
  br label %57

57:                                               ; preds = %56
  %58 = load i32, ptr %9, align 4
  %59 = add nsw i32 %58, 1
  store i32 %59, ptr %9, align 4
  br label %37, !llvm.loop !60

60:                                               ; preds = %37
  %61 = load i32, ptr %8, align 4
  store i32 %61, ptr %3, align 4
  br label %62

62:                                               ; preds = %60, %23
  %63 = load i32, ptr %3, align 4
  ret i32 %63
}