; Function Attrs: mustprogress nounwind uwtable
define noundef i32 @_ZN7glslang13TIntermediate9getOffsetERKNS_5TTypeEi(ptr noundef nonnull align 8 dereferenceable(152) %0, i32 noundef %1) local_unnamed_addr #0 align 2 {
  %3 = alloca i32, align 4
  %4 = alloca i32, align 4
  %5 = getelementptr inbounds i8, ptr %0, i64 104
  %6 = load ptr, ptr %5, align 8
  %7 = sext i32 %1 to i64
  %8 = getelementptr inbounds i8, ptr %6, i64 8
  %9 = load ptr, ptr %8, align 8
  %10 = getelementptr inbounds %"struct.glslang::TTypeLoc", ptr %9, i64 %7
  %11 = load ptr, ptr %10, align 8
  %12 = load ptr, ptr %11, align 8
  %13 = getelementptr inbounds i8, ptr %12, i64 80
  %14 = load ptr, ptr %13, align 8
  %15 = tail call noundef nonnull align 8 dereferenceable(80) ptr %14(ptr noundef nonnull align 8 dereferenceable(152) %11) #18
  %16 = getelementptr inbounds i8, ptr %15, i64 20
  %17 = load i32, ptr %16, align 4
  %.not20 = icmp eq i32 %17, -1
  br i1 %.not20, label %27, label %18

18:                                               ; preds = %2
  %19 = load ptr, ptr %8, align 8
  %20 = getelementptr inbounds %"struct.glslang::TTypeLoc", ptr %19, i64 %7
  %21 = load ptr, ptr %20, align 8
  %22 = load ptr, ptr %21, align 8
  %23 = getelementptr inbounds i8, ptr %22, i64 80
  %24 = load ptr, ptr %23, align 8
  %25 = tail call noundef nonnull align 8 dereferenceable(80) ptr %24(ptr noundef nonnull align 8 dereferenceable(152) %21) #18
  %26 = getelementptr inbounds i8, ptr %25, i64 20
  %.013.in.sroa.speculate.load. = load i32, ptr %26, align 4
  br label %.loopexit

27:                                               ; preds = %2
  store i32 0, ptr %4, align 4
  %.not21 = icmp slt i32 %1, 0
  br i1 %.not21, label %.loopexit, label %.lr.ph.preheader

.lr.ph.preheader:                                 ; preds = %27
  %28 = add nuw i32 %1, 1
  %wide.trip.count = zext i32 %28 to i64
  br label %.lr.ph

.lr.ph:                                           ; preds = %.lr.ph.preheader, %_ZN7glslang13TIntermediate12updateOffsetERKNS_5TTypeES3_RiS4_.exit
  %indvars.iv = phi i64 [ 0, %.lr.ph.preheader ], [ %indvars.iv.next, %_ZN7glslang13TIntermediate12updateOffsetERKNS_5TTypeES3_RiS4_.exit ]
  %.01922 = phi i32 [ 0, %.lr.ph.preheader ], [ %.1, %_ZN7glslang13TIntermediate12updateOffsetERKNS_5TTypeES3_RiS4_.exit ]
  %29 = load ptr, ptr %8, align 8
  %30 = getelementptr inbounds %"struct.glslang::TTypeLoc", ptr %29, i64 %indvars.iv
  %31 = load ptr, ptr %30, align 8
  call void @llvm.lifetime.start.p0(i64 4, ptr nonnull %3)
  %32 = load ptr, ptr %31, align 8
  %33 = getelementptr inbounds i8, ptr %32, i64 88
  %34 = load ptr, ptr %33, align 8
  %35 = call noundef nonnull align 8 dereferenceable(80) ptr %34(ptr noundef nonnull align 8 dereferenceable(152) %31) #18
  %36 = getelementptr inbounds i8, ptr %35, i64 8
  %37 = load i64, ptr %36, align 8
  %38 = lshr i64 %37, 60
  %39 = trunc nuw nsw i64 %38 to i32
  %40 = and i32 %39, 7
  %41 = load ptr, ptr %0, align 8
  %42 = getelementptr inbounds i8, ptr %41, i64 88
  %43 = load ptr, ptr %42, align 8
  %44 = call noundef nonnull align 8 dereferenceable(80) ptr %43(ptr noundef nonnull align 8 dereferenceable(152) %0) #18
  %45 = getelementptr inbounds i8, ptr %44, i64 16
  %46 = load i8, ptr %45, align 8
  %.not.i = icmp eq i32 %40, 0
  br i1 %.not.i, label %49, label %47

47:                                               ; preds = %.lr.ph
  %48 = icmp eq i32 %40, 1
  br label %58

49:                                               ; preds = %.lr.ph
  %50 = load ptr, ptr %0, align 8
  %51 = getelementptr inbounds i8, ptr %50, i64 88
  %52 = load ptr, ptr %51, align 8
  %53 = call noundef nonnull align 8 dereferenceable(80) ptr %52(ptr noundef nonnull align 8 dereferenceable(152) %0) #18
  %54 = getelementptr inbounds i8, ptr %53, i64 8
  %55 = load i64, ptr %54, align 8
  %56 = and i64 %55, 8070450532247928832
  %57 = icmp eq i64 %56, 1152921504606846976
  br label %58

58:                                               ; preds = %49, %47
  %59 = phi i1 [ %48, %47 ], [ %57, %49 ]
  %60 = and i8 %46, 15
  %61 = icmp eq i8 %60, 5
  br i1 %61, label %62, label %64

62:                                               ; preds = %58
  %63 = call noundef i32 @_ZN7glslang13TIntermediate18getScalarAlignmentERKNS_5TTypeERiS4_b(ptr noundef nonnull align 8 dereferenceable(152) %31, ptr noundef nonnull align 4 dereferenceable(4) %4, ptr noundef nonnull align 4 dereferenceable(4) %3, i1 noundef zeroext %59)
  br label %_ZN7glslang13TIntermediate12updateOffsetERKNS_5TTypeES3_RiS4_.exit

64:                                               ; preds = %58
  %65 = zext nneg i8 %60 to i32
  %66 = call noundef i32 @_ZN7glslang13TIntermediate16getBaseAlignmentERKNS_5TTypeERiS4_NS_14TLayoutPackingEb(ptr noundef nonnull align 8 dereferenceable(152) %31, ptr noundef nonnull align 4 dereferenceable(4) %4, ptr noundef nonnull align 4 dereferenceable(4) %3, i32 noundef %65, i1 noundef zeroext %59)
  br label %_ZN7glslang13TIntermediate12updateOffsetERKNS_5TTypeES3_RiS4_.exit

_ZN7glslang13TIntermediate12updateOffsetERKNS_5TTypeES3_RiS4_.exit: ; preds = %62, %64
  %.0.i.i = phi i32 [ %63, %62 ], [ %66, %64 ]
  %67 = add i32 %.01922, -1
  %68 = add i32 %67, %.0.i.i
  %69 = sub i32 0, %.0.i.i
  %70 = and i32 %68, %69
  call void @llvm.lifetime.end.p0(i64 4, ptr nonnull %3)
  %71 = icmp slt i64 %indvars.iv, %7
  %72 = load i32, ptr %4, align 4
  %73 = select i1 %71, i32 %72, i32 0
  %.1 = add nsw i32 %70, %73
  %indvars.iv.next = add nuw nsw i64 %indvars.iv, 1
  %exitcond.not = icmp eq i64 %indvars.iv.next, %wide.trip.count
  br i1 %exitcond.not, label %.loopexit, label %.lr.ph, !llvm.loop !233

.loopexit:                                        ; preds = %_ZN7glslang13TIntermediate12updateOffsetERKNS_5TTypeES3_RiS4_.exit, %27, %18
  %.013.in.sroa.speculated = phi i32 [ %.013.in.sroa.speculate.load., %18 ], [ 0, %27 ], [ %.1, %_ZN7glslang13TIntermediate12updateOffsetERKNS_5TTypeES3_RiS4_.exit ]
  ret i32 %.013.in.sroa.speculated
}